; ModuleID = '45/2560.c'
source_filename = "45/2560.c"
target datalayout = "e-m:e-p270:32:32-p271:32:32-p272:64:64-i64:64-f80:128-n8:16:32:64-S128"
target triple = "x86_64-pc-linux-gnu"

@.str = private unnamed_addr constant [6 x i8] c"%s %s\00", align 1
@.str.1 = private unnamed_addr constant [3 x i8] c"%d\00", align 1

; Function Attrs: noinline nounwind uwtable
define dso_local i32 @isright(i8* %0, i8* %1, i32 %2) #0 {
  %4 = alloca i32, align 4
  %5 = alloca i8*, align 8
  %6 = alloca i8*, align 8
  %7 = alloca i32, align 4
  %8 = alloca [50 x i8], align 16
  %9 = alloca i32, align 4
  store i8* %0, i8** %5, align 8
  store i8* %1, i8** %6, align 8
  store i32 %2, i32* %7, align 4
  store i32 0, i32* %9, align 4
  br label %10

10:                                               ; preds = %27, %3
  %11 = load i32, i32* %9, align 4
  %12 = sext i32 %11 to i64
  %13 = load i8*, i8** %5, align 8
  %14 = call i64 @strlen(i8* %13) #3
  %15 = icmp ult i64 %12, %14
  br i1 %15, label %16, label %30

16:                                               ; preds = %10
  %17 = load i8*, i8** %6, align 8
  %18 = load i32, i32* %7, align 4
  %19 = load i32, i32* %9, align 4
  %20 = add nsw i32 %18, %19
  %21 = sext i32 %20 to i64
  %22 = getelementptr inbounds i8, i8* %17, i64 %21
  %23 = load i8, i8* %22, align 1
  %24 = load i32, i32* %9, align 4
  %25 = sext i32 %24 to i64
  %26 = getelementptr inbounds [50 x i8], [50 x i8]* %8, i64 0, i64 %25
  store i8 %23, i8* %26, align 1
  br label %27

27:                                               ; preds = %16
  %28 = load i32, i32* %9, align 4
  %29 = add nsw i32 %28, 1
  store i32 %29, i32* %9, align 4
  br label %10

30:                                               ; preds = %10
  %31 = load i8*, i8** %5, align 8
  %32 = call i64 @strlen(i8* %31) #3
  %33 = getelementptr inbounds [50 x i8], [50 x i8]* %8, i64 0, i64 %32
  store i8 0, i8* %33, align 1
  %34 = load i8*, i8** %5, align 8
  %35 = getelementptr inbounds [50 x i8], [50 x i8]* %8, i64 0, i64 0
  %36 = call i32 @strcmp(i8* %34, i8* %35) #3
  %37 = icmp eq i32 %36, 0
  br i1 %37, label %38, label %39

38:                                               ; preds = %30
  store i32 1, i32* %4, align 4
  br label %40

39:                                               ; preds = %30
  store i32 0, i32* %4, align 4
  br label %40

40:                                               ; preds = %39, %38
  %41 = load i32, i32* %4, align 4
  ret i32 %41
}

; Function Attrs: nounwind readonly
declare dso_local i64 @strlen(i8*) #1

; Function Attrs: nounwind readonly
declare dso_local i32 @strcmp(i8*, i8*) #1

; Function Attrs: noinline nounwind uwtable
define dso_local i32 @main() #0 {
  %1 = alloca i32, align 4
  %2 = alloca [50 x i8], align 16
  %3 = alloca [50 x i8], align 16
  %4 = alloca i32, align 4
  store i32 0, i32* %1, align 4
  %5 = getelementptr inbounds [50 x i8], [50 x i8]* %2, i64 0, i64 0
  %6 = getelementptr inbounds [50 x i8], [50 x i8]* %3, i64 0, i64 0
  %7 = call i32 (i8*, ...) @__isoc99_scanf(i8* getelementptr inbounds ([6 x i8], [6 x i8]* @.str, i64 0, i64 0), i8* %5, i8* %6)
  store i32 0, i32* %4, align 4
  br label %8

8:                                                ; preds = %27, %0
  %9 = load i32, i32* %4, align 4
  %10 = sext i32 %9 to i64
  %11 = getelementptr inbounds [50 x i8], [50 x i8]* %3, i64 0, i64 0
  %12 = call i64 @strlen(i8* %11) #3
  %13 = getelementptr inbounds [50 x i8], [50 x i8]* %2, i64 0, i64 0
  %14 = call i64 @strlen(i8* %13) #3
  %15 = sub i64 %12, %14
  %16 = icmp ule i64 %10, %15
  br i1 %16, label %17, label %30

17:                                               ; preds = %8
  %18 = getelementptr inbounds [50 x i8], [50 x i8]* %2, i64 0, i64 0
  %19 = getelementptr inbounds [50 x i8], [50 x i8]* %3, i64 0, i64 0
  %20 = load i32, i32* %4, align 4
  %21 = call i32 @isright(i8* %18, i8* %19, i32 %20)
  %22 = icmp ne i32 %21, 0
  br i1 %22, label %23, label %26

23:                                               ; preds = %17
  %24 = load i32, i32* %4, align 4
  %25 = call i32 (i8*, ...) @printf(i8* getelementptr inbounds ([3 x i8], [3 x i8]* @.str.1, i64 0, i64 0), i32 %24)
  br label %30

26:                                               ; preds = %17
  br label %27

27:                                               ; preds = %26
  %28 = load i32, i32* %4, align 4
  %29 = add nsw i32 %28, 1
  store i32 %29, i32* %4, align 4
  br label %8

30:                                               ; preds = %23, %8
  ret i32 0
}

declare dso_local i32 @__isoc99_scanf(i8*, ...) #2

declare dso_local i32 @printf(i8*, ...) #2


!llvm.module.flags = !{!0}
!llvm.ident = !{!1}

!0 = !{i32 1, !"wchar_size", i32 4}
!1 = !{!"clang version 10.0.0-4ubuntu1 "}
